target datalayout = "e-m:e-p270:32:32-p271:32:32-p272:64:64-i64:64-i128:128-f80:128-n8:16:32:64-S128"
target triple = "x86_64-pc-linux-gnu"

%struct.Ivy_Man_t_ = type { ptr, ptr, ptr, ptr, ptr, %struct.Ivy_Obj_t_, [8 x i32], i32, i32, ptr, i32, i32, i32, i32, ptr, i32, ptr, ptr, ptr, i32, ptr, ptr, ptr, i64, i64 }
%struct.Ivy_Obj_t_ = type { i32, i32, i32, i32, ptr, ptr, ptr, ptr, ptr, ptr, ptr, ptr }
%struct.Vec_Ptr_t_ = type { i32, i32, ptr }
%struct.Vec_Int_t_ = type { i32, i32, ptr }

@.str.5 = private unnamed_addr constant [2 x i8] c"'\00", align 1
@.str.6 = private unnamed_addr constant [2 x i8] c" \00", align 1
@.str.12 = private unnamed_addr constant [2 x i8] c"\0A\00", align 1
@.str.19 = private unnamed_addr constant [6 x i8] c"PIs: \00", align 1
@.str.20 = private unnamed_addr constant [4 x i8] c" %d\00", align 1
@.str.21 = private unnamed_addr constant [6 x i8] c"POs: \00", align 1
@.str.22 = private unnamed_addr constant [10 x i8] c"Latches: \00", align 1
@.str.23 = private unnamed_addr constant [9 x i8] c" %d=%d%s\00", align 1

; Function Attrs: nounwind uwtable
define internal i32 @Ivy_IsComplement(ptr noundef %0) #0 {
  %2 = alloca ptr, align 8
  store ptr %0, ptr %2, align 8
  %3 = load ptr, ptr %2, align 8
  %4 = ptrtoint ptr %3 to i64
  %5 = and i64 %4, 1
  %6 = trunc i64 %5 to i32
  ret i32 %6
}

; Function Attrs: nounwind uwtable
define internal ptr @Ivy_Regular(ptr noundef %0) #0 {
  %2 = alloca ptr, align 8
  store ptr %0, ptr %2, align 8
  %3 = load ptr, ptr %2, align 8
  %4 = ptrtoint ptr %3 to i64
  %5 = and i64 %4, -2
  %6 = inttoptr i64 %5 to ptr
  ret ptr %6
}

; Function Attrs: nounwind uwtable
define internal void @Vec_IntFree(ptr noundef %0) #0 {
  %2 = alloca ptr, align 8
  store ptr %0, ptr %2, align 8
  %3 = load ptr, ptr %2, align 8
  %4 = getelementptr inbounds %struct.Vec_Int_t_, ptr %3, i32 0, i32 2
  %5 = load ptr, ptr %4, align 8
  %6 = icmp ne ptr %5, null
  br i1 %6, label %7, label %13

7:                                                ; preds = %1
  %8 = load ptr, ptr %2, align 8
  %9 = getelementptr inbounds %struct.Vec_Int_t_, ptr %8, i32 0, i32 2
  %10 = load ptr, ptr %9, align 8
  call void @free(ptr noundef %10) #8
  %11 = load ptr, ptr %2, align 8
  %12 = getelementptr inbounds %struct.Vec_Int_t_, ptr %11, i32 0, i32 2
  store ptr null, ptr %12, align 8
  br label %14

13:                                               ; preds = %1
  br label %14

14:                                               ; preds = %13, %7
  %15 = load ptr, ptr %2, align 8
  %16 = icmp ne ptr %15, null
  br i1 %16, label %17, label %19

17:                                               ; preds = %14
  %18 = load ptr, ptr %2, align 8
  call void @free(ptr noundef %18) #8
  store ptr null, ptr %2, align 8
  br label %20

19:                                               ; preds = %14
  br label %20

20:                                               ; preds = %19, %17
  ret void
}

; Function Attrs: nounwind uwtable
define internal ptr @Ivy_ManObj(ptr noundef %0, i32 noundef %1) #0 {
  %3 = alloca ptr, align 8
  %4 = alloca i32, align 4
  store ptr %0, ptr %3, align 8
  store i32 %1, ptr %4, align 4
  %5 = load ptr, ptr %3, align 8
  %6 = getelementptr inbounds %struct.Ivy_Man_t_, ptr %5, i32 0, i32 3
  %7 = load ptr, ptr %6, align 8
  %8 = load i32, ptr %4, align 4
  %9 = call ptr @Vec_PtrEntry(ptr noundef %7, i32 noundef %8)
  ret ptr %9
}

; Function Attrs: nounwind uwtable
define internal i32 @Vec_IntEntry(ptr noundef %0, i32 noundef %1) #0 {
  %3 = alloca ptr, align 8
  %4 = alloca i32, align 4
  store ptr %0, ptr %3, align 8
  store i32 %1, ptr %4, align 4
  %5 = load ptr, ptr %3, align 8
  %6 = getelementptr inbounds %struct.Vec_Int_t_, ptr %5, i32 0, i32 2
  %7 = load ptr, ptr %6, align 8
  %8 = load i32, ptr %4, align 4
  %9 = sext i32 %8 to i64
  %10 = getelementptr inbounds i32, ptr %7, i64 %9
  %11 = load i32, ptr %10, align 4
  ret i32 %11
}

; Function Attrs: nounwind uwtable
define internal i32 @Vec_IntSize(ptr noundef %0) #0 {
  %2 = alloca ptr, align 8
  store ptr %0, ptr %2, align 8
  %3 = load ptr, ptr %2, align 8
  %4 = getelementptr inbounds %struct.Vec_Int_t_, ptr %3, i32 0, i32 1
  %5 = load i32, ptr %4, align 4
  ret i32 %5
}

; Function Attrs: nounwind uwtable
define internal i32 @Ivy_ObjFaninC0(ptr noundef %0) #0 {
  %2 = alloca ptr, align 8
  store ptr %0, ptr %2, align 8
  %3 = load ptr, ptr %2, align 8
  %4 = getelementptr inbounds %struct.Ivy_Obj_t_, ptr %3, i32 0, i32 4
  %5 = load ptr, ptr %4, align 8
  %6 = call i32 @Ivy_IsComplement(ptr noundef %5)
  ret i32 %6
}

; Function Attrs: nounwind uwtable
define internal ptr @Ivy_ObjFanin0(ptr noundef %0) #0 {
  %2 = alloca ptr, align 8
  store ptr %0, ptr %2, align 8
  %3 = load ptr, ptr %2, align 8
  %4 = getelementptr inbounds %struct.Ivy_Obj_t_, ptr %3, i32 0, i32 4
  %5 = load ptr, ptr %4, align 8
  %6 = call ptr @Ivy_Regular(ptr noundef %5)
  ret ptr %6
}

; Function Attrs: nounwind uwtable
define internal i32 @Ivy_ObjIsLatch(ptr noundef %0) #0 {
  %2 = alloca ptr, align 8
  store ptr %0, ptr %2, align 8
  %3 = load ptr, ptr %2, align 8
  %4 = getelementptr inbounds %struct.Ivy_Obj_t_, ptr %3, i32 0, i32 2
  %5 = load i32, ptr %4, align 8
  %6 = and i32 %5, 15
  %7 = icmp eq i32 %6, 4
  %8 = zext i1 %7 to i32
  ret i32 %8
}

; Function Attrs: nounwind uwtable
define internal ptr @Vec_PtrEntry(ptr noundef %0, i32 noundef %1) #0 {
  %3 = alloca ptr, align 8
  %4 = alloca i32, align 4
  store ptr %0, ptr %3, align 8
  store i32 %1, ptr %4, align 4
  %5 = load ptr, ptr %3, align 8
  %6 = getelementptr inbounds %struct.Vec_Ptr_t_, ptr %5, i32 0, i32 2
  %7 = load ptr, ptr %6, align 8
  %8 = load i32, ptr %4, align 4
  %9 = sext i32 %8 to i64
  %10 = getelementptr inbounds ptr, ptr %7, i64 %9
  %11 = load ptr, ptr %10, align 8
  ret ptr %11
}

; Function Attrs: nounwind uwtable
define internal i32 @Vec_PtrSize(ptr noundef %0) #0 {
  %2 = alloca ptr, align 8
  store ptr %0, ptr %2, align 8
  %3 = load ptr, ptr %2, align 8
  %4 = getelementptr inbounds %struct.Vec_Ptr_t_, ptr %3, i32 0, i32 1
  %5 = load i32, ptr %4, align 4
  ret i32 %5
}

; Function Attrs: nounwind uwtable
define void @Ivy_ManPrintVerbose(ptr noundef %0, i32 noundef %1) #0 {
  %3 = alloca ptr, align 8
  %4 = alloca i32, align 4
  %5 = alloca ptr, align 8
  %6 = alloca ptr, align 8
  %7 = alloca i32, align 4
  store ptr %0, ptr %3, align 8
  store i32 %1, ptr %4, align 4
  %8 = call i32 (ptr, ...) @printf(ptr noundef @.str.19)
  store i32 0, ptr %7, align 4
  br label %9

9:                                                ; preds = %29, %2
  %10 = load i32, ptr %7, align 4
  %11 = load ptr, ptr %3, align 8
  %12 = getelementptr inbounds %struct.Ivy_Man_t_, ptr %11, i32 0, i32 0
  %13 = load ptr, ptr %12, align 8
  %14 = call i32 @Vec_PtrSize(ptr noundef %13)
  %15 = icmp slt i32 %10, %14
  br i1 %15, label %16, label %22

16:                                               ; preds = %9
  %17 = load ptr, ptr %3, align 8
  %18 = getelementptr inbounds %struct.Ivy_Man_t_, ptr %17, i32 0, i32 0
  %19 = load ptr, ptr %18, align 8
  %20 = load i32, ptr %7, align 4
  %21 = call ptr @Vec_PtrEntry(ptr noundef %19, i32 noundef %20)
  store ptr %21, ptr %6, align 8
  br label %22

22:                                               ; preds = %16, %9
  %23 = phi i1 [ false, %9 ], [ true, %16 ]
  br i1 %23, label %24, label %32

24:                                               ; preds = %22
  %25 = load ptr, ptr %6, align 8
  %26 = getelementptr inbounds %struct.Ivy_Obj_t_, ptr %25, i32 0, i32 0
  %27 = load i32, ptr %26, align 8
  %28 = call i32 (ptr, ...) @printf(ptr noundef @.str.20, i32 noundef %27)
  br label %29

29:                                               ; preds = %24
  %30 = load i32, ptr %7, align 4
  %31 = add nsw i32 %30, 1
  store i32 %31, ptr %7, align 4
  br label %9, !llvm.loop !25

32:                                               ; preds = %22
  %33 = call i32 (ptr, ...) @printf(ptr noundef @.str.12)
  %34 = call i32 (ptr, ...) @printf(ptr noundef @.str.21)
  store i32 0, ptr %7, align 4
  br label %35

35:                                               ; preds = %55, %32
  %36 = load i32, ptr %7, align 4
  %37 = load ptr, ptr %3, align 8
  %38 = getelementptr inbounds %struct.Ivy_Man_t_, ptr %37, i32 0, i32 1
  %39 = load ptr, ptr %38, align 8
  %40 = call i32 @Vec_PtrSize(ptr noundef %39)
  %41 = icmp slt i32 %36, %40
  br i1 %41, label %42, label %48

42:                                               ; preds = %35
  %43 = load ptr, ptr %3, align 8
  %44 = getelementptr inbounds %struct.Ivy_Man_t_, ptr %43, i32 0, i32 1
  %45 = load ptr, ptr %44, align 8
  %46 = load i32, ptr %7, align 4
  %47 = call ptr @Vec_PtrEntry(ptr noundef %45, i32 noundef %46)
  store ptr %47, ptr %6, align 8
  br label %48

48:                                               ; preds = %42, %35
  %49 = phi i1 [ false, %35 ], [ true, %42 ]
  br i1 %49, label %50, label %58

50:                                               ; preds = %48
  %51 = load ptr, ptr %6, align 8
  %52 = getelementptr inbounds %struct.Ivy_Obj_t_, ptr %51, i32 0, i32 0
  %53 = load i32, ptr %52, align 8
  %54 = call i32 (ptr, ...) @printf(ptr noundef @.str.20, i32 noundef %53)
  br label %55

55:                                               ; preds = %50
  %56 = load i32, ptr %7, align 4
  %57 = add nsw i32 %56, 1
  store i32 %57, ptr %7, align 4
  br label %35, !llvm.loop !26

58:                                               ; preds = %48
  %59 = call i32 (ptr, ...) @printf(ptr noundef @.str.12)
  %60 = call i32 (ptr, ...) @printf(ptr noundef @.str.22)
  store i32 0, ptr %7, align 4
  br label %61

61:                                               ; preds = %100, %58
  %62 = load i32, ptr %7, align 4
  %63 = load ptr, ptr %3, align 8
  %64 = getelementptr inbounds %struct.Ivy_Man_t_, ptr %63, i32 0, i32 3
  %65 = load ptr, ptr %64, align 8
  %66 = call i32 @Vec_PtrSize(ptr noundef %65)
  %67 = icmp slt i32 %62, %66
  br i1 %67, label %68, label %74

68:                                               ; preds = %61
  %69 = load ptr, ptr %3, align 8
  %70 = getelementptr inbounds %struct.Ivy_Man_t_, ptr %69, i32 0, i32 3
  %71 = load ptr, ptr %70, align 8
  %72 = load i32, ptr %7, align 4
  %73 = call ptr @Vec_PtrEntry(ptr noundef %71, i32 noundef %72)
  store ptr %73, ptr %6, align 8
  br label %74

74:                                               ; preds = %68, %61
  %75 = phi i1 [ false, %61 ], [ true, %68 ]
  br i1 %75, label %76, label %103

76:                                               ; preds = %74
  %77 = load ptr, ptr %6, align 8
  %78 = icmp eq ptr %77, null
  br i1 %78, label %79, label %80

79:                                               ; preds = %76
  br label %99

80:                                               ; preds = %76
  %81 = load ptr, ptr %6, align 8
  %82 = call i32 @Ivy_ObjIsLatch(ptr noundef %81)
  %83 = icmp ne i32 %82, 0
  br i1 %83, label %85, label %84

84:                                               ; preds = %80
  br label %98

85:                                               ; preds = %80
  %86 = load ptr, ptr %6, align 8
  %87 = getelementptr inbounds %struct.Ivy_Obj_t_, ptr %86, i32 0, i32 0
  %88 = load i32, ptr %87, align 8
  %89 = load ptr, ptr %6, align 8
  %90 = call ptr @Ivy_ObjFanin0(ptr noundef %89)
  %91 = getelementptr inbounds %struct.Ivy_Obj_t_, ptr %90, i32 0, i32 0
  %92 = load i32, ptr %91, align 8
  %93 = load ptr, ptr %6, align 8
  %94 = call i32 @Ivy_ObjFaninC0(ptr noundef %93)
  %95 = icmp ne i32 %94, 0
  %96 = select i1 %95, ptr @.str.5, ptr @.str.6
  %97 = call i32 (ptr, ...) @printf(ptr noundef @.str.23, i32 noundef %88, i32 noundef %92, ptr noundef %96)
  br label %98

98:                                               ; preds = %85, %84
  br label %99

99:                                               ; preds = %98, %79
  br label %100

100:                                              ; preds = %99
  %101 = load i32, ptr %7, align 4
  %102 = add nsw i32 %101, 1
  store i32 %102, ptr %7, align 4
  br label %61, !llvm.loop !27

103:                                              ; preds = %74
  %104 = call i32 (ptr, ...) @printf(ptr noundef @.str.12)
  %105 = load ptr, ptr %3, align 8
  %106 = call ptr @Ivy_ManDfsSeq(ptr noundef %105, ptr noundef null)
  store ptr %106, ptr %5, align 8
  store i32 0, ptr %7, align 4
  br label %107

107:                                              ; preds = %126, %103
  %108 = load i32, ptr %7, align 4
  %109 = load ptr, ptr %5, align 8
  %110 = call i32 @Vec_IntSize(ptr noundef %109)
  %111 = icmp slt i32 %108, %110
  br i1 %111, label %112, label %119

112:                                              ; preds = %107
  %113 = load ptr, ptr %3, align 8
  %114 = load ptr, ptr %5, align 8
  %115 = load i32, ptr %7, align 4
  %116 = call i32 @Vec_IntEntry(ptr noundef %114, i32 noundef %115)
  %117 = call ptr @Ivy_ManObj(ptr noundef %113, i32 noundef %116)
  store ptr %117, ptr %6, align 8
  %118 = icmp ne ptr %117, null
  br label %119

119:                                              ; preds = %112, %107
  %120 = phi i1 [ false, %107 ], [ %118, %112 ]
  br i1 %120, label %121, label %129

121:                                              ; preds = %119
  %122 = load ptr, ptr %3, align 8
  %123 = load ptr, ptr %6, align 8
  %124 = load i32, ptr %4, align 4
  call void @Ivy_ObjPrintVerbose(ptr noundef %122, ptr noundef %123, i32 noundef %124)
  %125 = call i32 (ptr, ...) @printf(ptr noundef @.str.12)
  br label %126

126:                                              ; preds = %121
  %127 = load i32, ptr %7, align 4
  %128 = add nsw i32 %127, 1
  store i32 %128, ptr %7, align 4
  br label %107, !llvm.loop !28

129:                                              ; preds = %119
  %130 = call i32 (ptr, ...) @printf(ptr noundef @.str.12)
  %131 = load ptr, ptr %5, align 8
  call void @Vec_IntFree(ptr noundef %131)
  ret void
}