; Function Attrs: nounwind uwtable
define void @Ivy_ManPrintVerbose(ptr noundef %0, i32 noundef %1) local_unnamed_addr #1 {
  %3 = tail call i32 (ptr, ...) @printf(ptr noundef nonnull dereferenceable(1) @.str.19)
  %4 = load ptr, ptr %0, align 8
  %5 = getelementptr i8, ptr %4, i64 4
  %.val4758 = load i32, ptr %5, align 4
  %6 = icmp sgt i32 %.val4758, 0
  br i1 %6, label %.lr.ph, label %.critedge

.lr.ph:                                           ; preds = %2, %.lr.ph
  %indvars.iv = phi i64 [ %indvars.iv.next, %.lr.ph ], [ 0, %2 ]
  %7 = phi ptr [ %13, %.lr.ph ], [ %4, %2 ]
  %8 = getelementptr i8, ptr %7, i64 8
  %.val50 = load ptr, ptr %8, align 8
  %9 = getelementptr inbounds nuw ptr, ptr %.val50, i64 %indvars.iv
  %10 = load ptr, ptr %9, align 8
  %11 = load i32, ptr %10, align 8
  %12 = tail call i32 (ptr, ...) @printf(ptr noundef nonnull dereferenceable(1) @.str.20, i32 noundef %11)
  %indvars.iv.next = add nuw nsw i64 %indvars.iv, 1
  %13 = load ptr, ptr %0, align 8
  %14 = getelementptr i8, ptr %13, i64 4
  %.val47 = load i32, ptr %14, align 4
  %15 = sext i32 %.val47 to i64
  %16 = icmp slt i64 %indvars.iv.next, %15
  br i1 %16, label %.lr.ph, label %.critedge, !llvm.loop !24

.critedge:                                        ; preds = %.lr.ph, %2
  %putchar = tail call i32 @putchar(i32 10)
  %17 = tail call i32 (ptr, ...) @printf(ptr noundef nonnull dereferenceable(1) @.str.21)
  %18 = getelementptr inbounds nuw i8, ptr %0, i64 8
  %19 = load ptr, ptr %18, align 8
  %20 = getelementptr i8, ptr %19, i64 4
  %.val4660 = load i32, ptr %20, align 4
  %21 = icmp sgt i32 %.val4660, 0
  br i1 %21, label %.lr.ph62, label %.critedge2

.lr.ph62:                                         ; preds = %.critedge, %.lr.ph62
  %indvars.iv71 = phi i64 [ %indvars.iv.next72, %.lr.ph62 ], [ 0, %.critedge ]
  %22 = phi ptr [ %28, %.lr.ph62 ], [ %19, %.critedge ]
  %23 = getelementptr i8, ptr %22, i64 8
  %.val49 = load ptr, ptr %23, align 8
  %24 = getelementptr inbounds nuw ptr, ptr %.val49, i64 %indvars.iv71
  %25 = load ptr, ptr %24, align 8
  %26 = load i32, ptr %25, align 8
  %27 = tail call i32 (ptr, ...) @printf(ptr noundef nonnull dereferenceable(1) @.str.20, i32 noundef %26)
  %indvars.iv.next72 = add nuw nsw i64 %indvars.iv71, 1
  %28 = load ptr, ptr %18, align 8
  %29 = getelementptr i8, ptr %28, i64 4
  %.val46 = load i32, ptr %29, align 4
  %30 = sext i32 %.val46 to i64
  %31 = icmp slt i64 %indvars.iv.next72, %30
  br i1 %31, label %.lr.ph62, label %.critedge2, !llvm.loop !25

.critedge2:                                       ; preds = %.lr.ph62, %.critedge
  %putchar40 = tail call i32 @putchar(i32 10)
  %32 = tail call i32 (ptr, ...) @printf(ptr noundef nonnull dereferenceable(1) @.str.22)
  %33 = getelementptr inbounds nuw i8, ptr %0, i64 24
  %34 = load ptr, ptr %33, align 8
  %35 = getelementptr i8, ptr %34, i64 4
  %.val63 = load i32, ptr %35, align 4
  %36 = icmp sgt i32 %.val63, 0
  br i1 %36, label %.lr.ph65, label %.critedge4

.lr.ph65:                                         ; preds = %.critedge2, %55
  %37 = phi ptr [ %56, %55 ], [ %34, %.critedge2 ]
  %indvars.iv74 = phi i64 [ %indvars.iv.next75, %55 ], [ 0, %.critedge2 ]
  %38 = getelementptr i8, ptr %37, i64 8
  %.val48 = load ptr, ptr %38, align 8
  %39 = getelementptr inbounds nuw ptr, ptr %.val48, i64 %indvars.iv74
  %40 = load ptr, ptr %39, align 8
  %41 = icmp eq ptr %40, null
  br i1 %41, label %55, label %42

42:                                               ; preds = %.lr.ph65
  %43 = getelementptr i8, ptr %40, i64 8
  %.val56 = load i32, ptr %43, align 8
  %44 = and i32 %.val56, 15
  %.not57 = icmp eq i32 %44, 4
  br i1 %.not57, label %45, label %55

45:                                               ; preds = %42
  %46 = load i32, ptr %40, align 8
  %47 = getelementptr i8, ptr %40, i64 16
  %.val51 = load ptr, ptr %47, align 8
  %48 = ptrtoint ptr %.val51 to i64
  %49 = and i64 %48, -2
  %50 = inttoptr i64 %49 to ptr
  %51 = load i32, ptr %50, align 8
  %52 = and i64 %48, 1
  %.not45 = icmp eq i64 %52, 0
  %53 = select i1 %.not45, ptr @.str.6, ptr @.str.5
  %54 = tail call i32 (ptr, ...) @printf(ptr noundef nonnull dereferenceable(1) @.str.23, i32 noundef %46, i32 noundef %51, ptr noundef nonnull %53)
  %.pre = load ptr, ptr %33, align 8
  br label %55

55:                                               ; preds = %.lr.ph65, %42, %45
  %56 = phi ptr [ %37, %.lr.ph65 ], [ %37, %42 ], [ %.pre, %45 ]
  %indvars.iv.next75 = add nuw nsw i64 %indvars.iv74, 1
  %57 = getelementptr i8, ptr %56, i64 4
  %.val = load i32, ptr %57, align 4
  %58 = sext i32 %.val to i64
  %59 = icmp slt i64 %indvars.iv.next75, %58
  br i1 %59, label %.lr.ph65, label %.critedge4, !llvm.loop !26

.critedge4:                                       ; preds = %55, %.critedge2
  %putchar41 = tail call i32 @putchar(i32 10)
  %60 = tail call ptr @Ivy_ManDfsSeq(ptr noundef nonnull %0, ptr noundef null) #19
  %61 = getelementptr i8, ptr %60, i64 8
  %62 = getelementptr i8, ptr %60, i64 4
  %.val5266 = load i32, ptr %62, align 4
  %63 = icmp sgt i32 %.val5266, 0
  br i1 %63, label %.lr.ph68, label %.critedge6

.lr.ph68:                                         ; preds = %.critedge4, %70
  %indvars.iv77 = phi i64 [ %indvars.iv.next78, %70 ], [ 0, %.critedge4 ]
  %.val53 = load ptr, ptr %61, align 8
  %64 = getelementptr inbounds nuw i32, ptr %.val53, i64 %indvars.iv77
  %65 = load i32, ptr %64, align 4
  %.val54 = load ptr, ptr %33, align 8
  %66 = getelementptr i8, ptr %.val54, i64 8
  %.val54.val = load ptr, ptr %66, align 8
  %67 = sext i32 %65 to i64
  %68 = getelementptr inbounds ptr, ptr %.val54.val, i64 %67
  %69 = load ptr, ptr %68, align 8
  %.not = icmp eq ptr %69, null
  br i1 %.not, label %.critedge6, label %70

70:                                               ; preds = %.lr.ph68
  tail call void @Ivy_ObjPrintVerbose(ptr nonnull poison, ptr noundef nonnull %69, i32 noundef %1)
  %putchar43 = tail call i32 @putchar(i32 10)
  %indvars.iv.next78 = add nuw nsw i64 %indvars.iv77, 1
  %.val52 = load i32, ptr %62, align 4
  %71 = sext i32 %.val52 to i64
  %72 = icmp slt i64 %indvars.iv.next78, %71
  br i1 %72, label %.lr.ph68, label %.critedge6, !llvm.loop !27

.critedge6:                                       ; preds = %.lr.ph68, %70, %.critedge4
  %putchar42 = tail call i32 @putchar(i32 10)
  %73 = load ptr, ptr %61, align 8
  %.not.i = icmp eq ptr %73, null
  br i1 %.not.i, label %Vec_IntFree.exit, label %74

74:                                               ; preds = %.critedge6
  tail call void @free(ptr noundef nonnull %73) #19
  br label %Vec_IntFree.exit

Vec_IntFree.exit:                                 ; preds = %.critedge6, %74
  tail call void @free(ptr noundef nonnull %60) #19
  ret void
}